target datalayout = "e-m:e-p270:32:32-p271:32:32-p272:64:64-i64:64-i128:128-f80:128-n8:16:32:64-S128"
target triple = "x86_64-pc-linux-gnu"

%struct.HuffmanCode = type { i8, i16 }

; Function Attrs: alwaysinline nounwind uwtable
define internal void @ReplicateValue(ptr noundef %0, i32 noundef %1, i32 noundef %2, i32 %3) #2 {
  %5 = alloca %struct.HuffmanCode, align 2
  %6 = alloca ptr, align 8
  %7 = alloca i32, align 4
  %8 = alloca i32, align 4
  store i32 %3, ptr %5, align 2
  store ptr %0, ptr %6, align 8, !tbaa !3
  store i32 %1, ptr %7, align 4, !tbaa !11
  store i32 %2, ptr %8, align 4, !tbaa !11
  br label %9

9:                                                ; preds = %17, %4
  %10 = load i32, ptr %7, align 4, !tbaa !11
  %11 = load i32, ptr %8, align 4, !tbaa !11
  %12 = sub nsw i32 %11, %10
  store i32 %12, ptr %8, align 4, !tbaa !11
  %13 = load ptr, ptr %6, align 8, !tbaa !3
  %14 = load i32, ptr %8, align 4, !tbaa !11
  %15 = sext i32 %14 to i64
  %16 = getelementptr inbounds %struct.HuffmanCode, ptr %13, i64 %15
  call void @llvm.memcpy.p0.p0.i64(ptr align 2 %16, ptr align 2 %5, i64 4, i1 false), !tbaa.struct !18
  br label %17

17:                                               ; preds = %9
  %18 = load i32, ptr %8, align 4, !tbaa !11
  %19 = icmp sgt i32 %18, 0
  br i1 %19, label %9, label %20, !llvm.loop !27

20:                                               ; preds = %17
  ret void
}

; Function Attrs: alwaysinline nounwind uwtable
define internal i64 @BrotliReverseBits(i64 noundef %0) #2 {
  %2 = alloca i64, align 8
  store i64 %0, ptr %2, align 8, !tbaa !19
  %3 = load i64, ptr %2, align 8, !tbaa !19
  %4 = getelementptr inbounds nuw [256 x i8], ptr @kReverseBits, i64 0, i64 %3
  %5 = load i8, ptr %4, align 1, !tbaa !15
  %6 = zext i8 %5 to i64
  ret i64 %6
}

; Function Attrs: alwaysinline nounwind uwtable
define internal i32 @ConstructHuffmanCode(i8 noundef zeroext %0, i16 noundef zeroext %1) #2 {
  %3 = alloca %struct.HuffmanCode, align 2
  %4 = alloca i8, align 1
  %5 = alloca i16, align 2
  store i8 %0, ptr %4, align 1, !tbaa !15
  store i16 %1, ptr %5, align 2, !tbaa !13
  %6 = load i8, ptr %4, align 1, !tbaa !15
  %7 = getelementptr inbounds nuw %struct.HuffmanCode, ptr %3, i32 0, i32 0
  store i8 %6, ptr %7, align 2, !tbaa !24
  %8 = load i16, ptr %5, align 2, !tbaa !13
  %9 = getelementptr inbounds nuw %struct.HuffmanCode, ptr %3, i32 0, i32 1
  store i16 %8, ptr %9, align 2, !tbaa !26
  %10 = load i32, ptr %3, align 2
  ret i32 %10
}

; Function Attrs: nounwind uwtable
define hidden void @BrotliBuildCodeLengthsHuffmanTable(ptr noundef %0, ptr noundef %1, ptr noundef %2) #0 {
  %4 = alloca ptr, align 8
  %5 = alloca ptr, align 8
  %6 = alloca ptr, align 8
  %7 = alloca %struct.HuffmanCode, align 2
  %8 = alloca i32, align 4
  %9 = alloca i64, align 8
  %10 = alloca i64, align 8
  %11 = alloca i32, align 4
  %12 = alloca i32, align 4
  %13 = alloca [18 x i32], align 16
  %14 = alloca [6 x i32], align 16
  %15 = alloca i32, align 4
  %16 = alloca i32, align 4
  %17 = alloca %struct.HuffmanCode, align 2
  %18 = alloca i32, align 4
  %19 = alloca %struct.HuffmanCode, align 2
  store ptr %0, ptr %4, align 8, !tbaa !3
  store ptr %1, ptr %5, align 8, !tbaa !7
  store ptr %2, ptr %6, align 8, !tbaa !9
  call void @llvm.lifetime.start.p0(i64 4, ptr %7) #4
  call void @llvm.lifetime.start.p0(i64 4, ptr %8) #4
  call void @llvm.lifetime.start.p0(i64 8, ptr %9) #4
  call void @llvm.lifetime.start.p0(i64 8, ptr %10) #4
  call void @llvm.lifetime.start.p0(i64 4, ptr %11) #4
  call void @llvm.lifetime.start.p0(i64 4, ptr %12) #4
  call void @llvm.lifetime.start.p0(i64 72, ptr %13) #4
  call void @llvm.lifetime.start.p0(i64 24, ptr %14) #4
  call void @llvm.lifetime.start.p0(i64 4, ptr %15) #4
  call void @llvm.lifetime.start.p0(i64 4, ptr %16) #4
  store i32 -1, ptr %8, align 4, !tbaa !11
  store i32 1, ptr %15, align 4, !tbaa !11
  %20 = load ptr, ptr %6, align 8, !tbaa !9
  %21 = load i32, ptr %15, align 4, !tbaa !11
  %22 = sext i32 %21 to i64
  %23 = getelementptr inbounds i16, ptr %20, i64 %22
  %24 = load i16, ptr %23, align 2, !tbaa !13
  %25 = zext i16 %24 to i32
  %26 = load i32, ptr %8, align 4, !tbaa !11
  %27 = add nsw i32 %26, %25
  store i32 %27, ptr %8, align 4, !tbaa !11
  %28 = load i32, ptr %8, align 4, !tbaa !11
  %29 = load i32, ptr %15, align 4, !tbaa !11
  %30 = sext i32 %29 to i64
  %31 = getelementptr inbounds [6 x i32], ptr %14, i64 0, i64 %30
  store i32 %28, ptr %31, align 4, !tbaa !11
  %32 = load i32, ptr %15, align 4, !tbaa !11
  %33 = add nsw i32 %32, 1
  store i32 %33, ptr %15, align 4, !tbaa !11
  %34 = load ptr, ptr %6, align 8, !tbaa !9
  %35 = load i32, ptr %15, align 4, !tbaa !11
  %36 = sext i32 %35 to i64
  %37 = getelementptr inbounds i16, ptr %34, i64 %36
  %38 = load i16, ptr %37, align 2, !tbaa !13
  %39 = zext i16 %38 to i32
  %40 = load i32, ptr %8, align 4, !tbaa !11
  %41 = add nsw i32 %40, %39
  store i32 %41, ptr %8, align 4, !tbaa !11
  %42 = load i32, ptr %8, align 4, !tbaa !11
  %43 = load i32, ptr %15, align 4, !tbaa !11
  %44 = sext i32 %43 to i64
  %45 = getelementptr inbounds [6 x i32], ptr %14, i64 0, i64 %44
  store i32 %42, ptr %45, align 4, !tbaa !11
  %46 = load i32, ptr %15, align 4, !tbaa !11
  %47 = add nsw i32 %46, 1
  store i32 %47, ptr %15, align 4, !tbaa !11
  %48 = load ptr, ptr %6, align 8, !tbaa !9
  %49 = load i32, ptr %15, align 4, !tbaa !11
  %50 = sext i32 %49 to i64
  %51 = getelementptr inbounds i16, ptr %48, i64 %50
  %52 = load i16, ptr %51, align 2, !tbaa !13
  %53 = zext i16 %52 to i32
  %54 = load i32, ptr %8, align 4, !tbaa !11
  %55 = add nsw i32 %54, %53
  store i32 %55, ptr %8, align 4, !tbaa !11
  %56 = load i32, ptr %8, align 4, !tbaa !11
  %57 = load i32, ptr %15, align 4, !tbaa !11
  %58 = sext i32 %57 to i64
  %59 = getelementptr inbounds [6 x i32], ptr %14, i64 0, i64 %58
  store i32 %56, ptr %59, align 4, !tbaa !11
  %60 = load i32, ptr %15, align 4, !tbaa !11
  %61 = add nsw i32 %60, 1
  store i32 %61, ptr %15, align 4, !tbaa !11
  %62 = load ptr, ptr %6, align 8, !tbaa !9
  %63 = load i32, ptr %15, align 4, !tbaa !11
  %64 = sext i32 %63 to i64
  %65 = getelementptr inbounds i16, ptr %62, i64 %64
  %66 = load i16, ptr %65, align 2, !tbaa !13
  %67 = zext i16 %66 to i32
  %68 = load i32, ptr %8, align 4, !tbaa !11
  %69 = add nsw i32 %68, %67
  store i32 %69, ptr %8, align 4, !tbaa !11
  %70 = load i32, ptr %8, align 4, !tbaa !11
  %71 = load i32, ptr %15, align 4, !tbaa !11
  %72 = sext i32 %71 to i64
  %73 = getelementptr inbounds [6 x i32], ptr %14, i64 0, i64 %72
  store i32 %70, ptr %73, align 4, !tbaa !11
  %74 = load i32, ptr %15, align 4, !tbaa !11
  %75 = add nsw i32 %74, 1
  store i32 %75, ptr %15, align 4, !tbaa !11
  %76 = load ptr, ptr %6, align 8, !tbaa !9
  %77 = load i32, ptr %15, align 4, !tbaa !11
  %78 = sext i32 %77 to i64
  %79 = getelementptr inbounds i16, ptr %76, i64 %78
  %80 = load i16, ptr %79, align 2, !tbaa !13
  %81 = zext i16 %80 to i32
  %82 = load i32, ptr %8, align 4, !tbaa !11
  %83 = add nsw i32 %82, %81
  store i32 %83, ptr %8, align 4, !tbaa !11
  %84 = load i32, ptr %8, align 4, !tbaa !11
  %85 = load i32, ptr %15, align 4, !tbaa !11
  %86 = sext i32 %85 to i64
  %87 = getelementptr inbounds [6 x i32], ptr %14, i64 0, i64 %86
  store i32 %84, ptr %87, align 4, !tbaa !11
  %88 = load i32, ptr %15, align 4, !tbaa !11
  %89 = add nsw i32 %88, 1
  store i32 %89, ptr %15, align 4, !tbaa !11
  %90 = getelementptr inbounds [6 x i32], ptr %14, i64 0, i64 0
  store i32 17, ptr %90, align 16, !tbaa !11
  store i32 18, ptr %8, align 4, !tbaa !11
  br label %91

91:                                               ; preds = %176, %3
  %92 = load i32, ptr %8, align 4, !tbaa !11
  %93 = add nsw i32 %92, -1
  store i32 %93, ptr %8, align 4, !tbaa !11
  %94 = load i32, ptr %8, align 4, !tbaa !11
  %95 = load ptr, ptr %5, align 8, !tbaa !7
  %96 = load i32, ptr %8, align 4, !tbaa !11
  %97 = sext i32 %96 to i64
  %98 = getelementptr inbounds i8, ptr %95, i64 %97
  %99 = load i8, ptr %98, align 1, !tbaa !15
  %100 = zext i8 %99 to i64
  %101 = getelementptr inbounds nuw [6 x i32], ptr %14, i64 0, i64 %100
  %102 = load i32, ptr %101, align 4, !tbaa !11
  %103 = add nsw i32 %102, -1
  store i32 %103, ptr %101, align 4, !tbaa !11
  %104 = sext i32 %102 to i64
  %105 = getelementptr inbounds [18 x i32], ptr %13, i64 0, i64 %104
  store i32 %94, ptr %105, align 4, !tbaa !11
  %106 = load i32, ptr %8, align 4, !tbaa !11
  %107 = add nsw i32 %106, -1
  store i32 %107, ptr %8, align 4, !tbaa !11
  %108 = load i32, ptr %8, align 4, !tbaa !11
  %109 = load ptr, ptr %5, align 8, !tbaa !7
  %110 = load i32, ptr %8, align 4, !tbaa !11
  %111 = sext i32 %110 to i64
  %112 = getelementptr inbounds i8, ptr %109, i64 %111
  %113 = load i8, ptr %112, align 1, !tbaa !15
  %114 = zext i8 %113 to i64
  %115 = getelementptr inbounds nuw [6 x i32], ptr %14, i64 0, i64 %114
  %116 = load i32, ptr %115, align 4, !tbaa !11
  %117 = add nsw i32 %116, -1
  store i32 %117, ptr %115, align 4, !tbaa !11
  %118 = sext i32 %116 to i64
  %119 = getelementptr inbounds [18 x i32], ptr %13, i64 0, i64 %118
  store i32 %108, ptr %119, align 4, !tbaa !11
  %120 = load i32, ptr %8, align 4, !tbaa !11
  %121 = add nsw i32 %120, -1
  store i32 %121, ptr %8, align 4, !tbaa !11
  %122 = load i32, ptr %8, align 4, !tbaa !11
  %123 = load ptr, ptr %5, align 8, !tbaa !7
  %124 = load i32, ptr %8, align 4, !tbaa !11
  %125 = sext i32 %124 to i64
  %126 = getelementptr inbounds i8, ptr %123, i64 %125
  %127 = load i8, ptr %126, align 1, !tbaa !15
  %128 = zext i8 %127 to i64
  %129 = getelementptr inbounds nuw [6 x i32], ptr %14, i64 0, i64 %128
  %130 = load i32, ptr %129, align 4, !tbaa !11
  %131 = add nsw i32 %130, -1
  store i32 %131, ptr %129, align 4, !tbaa !11
  %132 = sext i32 %130 to i64
  %133 = getelementptr inbounds [18 x i32], ptr %13, i64 0, i64 %132
  store i32 %122, ptr %133, align 4, !tbaa !11
  %134 = load i32, ptr %8, align 4, !tbaa !11
  %135 = add nsw i32 %134, -1
  store i32 %135, ptr %8, align 4, !tbaa !11
  %136 = load i32, ptr %8, align 4, !tbaa !11
  %137 = load ptr, ptr %5, align 8, !tbaa !7
  %138 = load i32, ptr %8, align 4, !tbaa !11
  %139 = sext i32 %138 to i64
  %140 = getelementptr inbounds i8, ptr %137, i64 %139
  %141 = load i8, ptr %140, align 1, !tbaa !15
  %142 = zext i8 %141 to i64
  %143 = getelementptr inbounds nuw [6 x i32], ptr %14, i64 0, i64 %142
  %144 = load i32, ptr %143, align 4, !tbaa !11
  %145 = add nsw i32 %144, -1
  store i32 %145, ptr %143, align 4, !tbaa !11
  %146 = sext i32 %144 to i64
  %147 = getelementptr inbounds [18 x i32], ptr %13, i64 0, i64 %146
  store i32 %136, ptr %147, align 4, !tbaa !11
  %148 = load i32, ptr %8, align 4, !tbaa !11
  %149 = add nsw i32 %148, -1
  store i32 %149, ptr %8, align 4, !tbaa !11
  %150 = load i32, ptr %8, align 4, !tbaa !11
  %151 = load ptr, ptr %5, align 8, !tbaa !7
  %152 = load i32, ptr %8, align 4, !tbaa !11
  %153 = sext i32 %152 to i64
  %154 = getelementptr inbounds i8, ptr %151, i64 %153
  %155 = load i8, ptr %154, align 1, !tbaa !15
  %156 = zext i8 %155 to i64
  %157 = getelementptr inbounds nuw [6 x i32], ptr %14, i64 0, i64 %156
  %158 = load i32, ptr %157, align 4, !tbaa !11
  %159 = add nsw i32 %158, -1
  store i32 %159, ptr %157, align 4, !tbaa !11
  %160 = sext i32 %158 to i64
  %161 = getelementptr inbounds [18 x i32], ptr %13, i64 0, i64 %160
  store i32 %150, ptr %161, align 4, !tbaa !11
  %162 = load i32, ptr %8, align 4, !tbaa !11
  %163 = add nsw i32 %162, -1
  store i32 %163, ptr %8, align 4, !tbaa !11
  %164 = load i32, ptr %8, align 4, !tbaa !11
  %165 = load ptr, ptr %5, align 8, !tbaa !7
  %166 = load i32, ptr %8, align 4, !tbaa !11
  %167 = sext i32 %166 to i64
  %168 = getelementptr inbounds i8, ptr %165, i64 %167
  %169 = load i8, ptr %168, align 1, !tbaa !15
  %170 = zext i8 %169 to i64
  %171 = getelementptr inbounds nuw [6 x i32], ptr %14, i64 0, i64 %170
  %172 = load i32, ptr %171, align 4, !tbaa !11
  %173 = add nsw i32 %172, -1
  store i32 %173, ptr %171, align 4, !tbaa !11
  %174 = sext i32 %172 to i64
  %175 = getelementptr inbounds [18 x i32], ptr %13, i64 0, i64 %174
  store i32 %164, ptr %175, align 4, !tbaa !11
  br label %176

176:                                              ; preds = %91
  %177 = load i32, ptr %8, align 4, !tbaa !11
  %178 = icmp ne i32 %177, 0
  br i1 %178, label %91, label %179, !llvm.loop !16

179:                                              ; preds = %176
  store i32 32, ptr %12, align 4, !tbaa !11
  %180 = getelementptr inbounds [6 x i32], ptr %14, i64 0, i64 0
  %181 = load i32, ptr %180, align 16, !tbaa !11
  %182 = icmp eq i32 %181, 0
  br i1 %182, label %183, label %201

183:                                              ; preds = %179
  call void @llvm.lifetime.start.p0(i64 4, ptr %17) #4
  %184 = getelementptr inbounds [18 x i32], ptr %13, i64 0, i64 0
  %185 = load i32, ptr %184, align 16, !tbaa !11
  %186 = trunc i32 %185 to i16
  %187 = call i32 @ConstructHuffmanCode(i8 noundef zeroext 0, i16 noundef zeroext %186)
  store i32 %187, ptr %17, align 2
  call void @llvm.memcpy.p0.p0.i64(ptr align 2 %7, ptr align 2 %17, i64 4, i1 false), !tbaa.struct !18
  call void @llvm.lifetime.end.p0(i64 4, ptr %17) #4
  store i64 0, ptr %9, align 8, !tbaa !19
  br label %188

188:                                              ; preds = %197, %183
  %189 = load i64, ptr %9, align 8, !tbaa !19
  %190 = load i32, ptr %12, align 4, !tbaa !11
  %191 = sext i32 %190 to i64
  %192 = icmp ult i64 %189, %191
  br i1 %192, label %193, label %200

193:                                              ; preds = %188
  %194 = load ptr, ptr %4, align 8, !tbaa !3
  %195 = load i64, ptr %9, align 8, !tbaa !19
  %196 = getelementptr inbounds nuw %struct.HuffmanCode, ptr %194, i64 %195
  call void @llvm.memcpy.p0.p0.i64(ptr align 2 %196, ptr align 2 %7, i64 4, i1 false), !tbaa.struct !18
  br label %197

197:                                              ; preds = %193
  %198 = load i64, ptr %9, align 8, !tbaa !19
  %199 = add i64 %198, 1
  store i64 %199, ptr %9, align 8, !tbaa !19
  br label %188, !llvm.loop !21

200:                                              ; preds = %188
  store i32 1, ptr %18, align 4
  br label %245

201:                                              ; preds = %179
  store i64 0, ptr %9, align 8, !tbaa !19
  store i64 128, ptr %10, align 8, !tbaa !19
  store i32 0, ptr %8, align 4, !tbaa !11
  store i32 1, ptr %15, align 4, !tbaa !11
  store i32 2, ptr %11, align 4, !tbaa !11
  br label %202

202:                                              ; preds = %240, %201
  %203 = load ptr, ptr %6, align 8, !tbaa !9
  %204 = load i32, ptr %15, align 4, !tbaa !11
  %205 = sext i32 %204 to i64
  %206 = getelementptr inbounds i16, ptr %203, i64 %205
  %207 = load i16, ptr %206, align 2, !tbaa !13
  %208 = zext i16 %207 to i32
  store i32 %208, ptr %16, align 4, !tbaa !11
  br label %209

209:                                              ; preds = %232, %202
  %210 = load i32, ptr %16, align 4, !tbaa !11
  %211 = icmp ne i32 %210, 0
  br i1 %211, label %212, label %235

212:                                              ; preds = %209
  call void @llvm.lifetime.start.p0(i64 4, ptr %19) #4
  %213 = load i32, ptr %15, align 4, !tbaa !11
  %214 = trunc i32 %213 to i8
  %215 = load i32, ptr %8, align 4, !tbaa !11
  %216 = add nsw i32 %215, 1
  store i32 %216, ptr %8, align 4, !tbaa !11
  %217 = sext i32 %215 to i64
  %218 = getelementptr inbounds [18 x i32], ptr %13, i64 0, i64 %217
  %219 = load i32, ptr %218, align 4, !tbaa !11
  %220 = trunc i32 %219 to i16
  %221 = call i32 @ConstructHuffmanCode(i8 noundef zeroext %214, i16 noundef zeroext %220)
  store i32 %221, ptr %19, align 2
  call void @llvm.memcpy.p0.p0.i64(ptr align 2 %7, ptr align 2 %19, i64 4, i1 false), !tbaa.struct !18
  call void @llvm.lifetime.end.p0(i64 4, ptr %19) #4
  %222 = load ptr, ptr %4, align 8, !tbaa !3
  %223 = load i64, ptr %9, align 8, !tbaa !19
  %224 = call i64 @BrotliReverseBits(i64 noundef %223)
  %225 = getelementptr inbounds nuw %struct.HuffmanCode, ptr %222, i64 %224
  %226 = load i32, ptr %11, align 4, !tbaa !11
  %227 = load i32, ptr %12, align 4, !tbaa !11
  %228 = load i32, ptr %7, align 2
  call void @ReplicateValue(ptr noundef %225, i32 noundef %226, i32 noundef %227, i32 %228)
  %229 = load i64, ptr %10, align 8, !tbaa !19
  %230 = load i64, ptr %9, align 8, !tbaa !19
  %231 = add i64 %230, %229
  store i64 %231, ptr %9, align 8, !tbaa !19
  br label %232

232:                                              ; preds = %212
  %233 = load i32, ptr %16, align 4, !tbaa !11
  %234 = add nsw i32 %233, -1
  store i32 %234, ptr %16, align 4, !tbaa !11
  br label %209, !llvm.loop !22

235:                                              ; preds = %209
  %236 = load i32, ptr %11, align 4, !tbaa !11
  %237 = shl i32 %236, 1
  store i32 %237, ptr %11, align 4, !tbaa !11
  %238 = load i64, ptr %10, align 8, !tbaa !19
  %239 = lshr i64 %238, 1
  store i64 %239, ptr %10, align 8, !tbaa !19
  br label %240

240:                                              ; preds = %235
  %241 = load i32, ptr %15, align 4, !tbaa !11
  %242 = add nsw i32 %241, 1
  store i32 %242, ptr %15, align 4, !tbaa !11
  %243 = icmp sle i32 %242, 5
  br i1 %243, label %202, label %244, !llvm.loop !23

244:                                              ; preds = %240
  store i32 0, ptr %18, align 4
  br label %245

245:                                              ; preds = %244, %200
  call void @llvm.lifetime.end.p0(i64 4, ptr %16) #4
  call void @llvm.lifetime.end.p0(i64 4, ptr %15) #4
  call void @llvm.lifetime.end.p0(i64 24, ptr %14) #4
  call void @llvm.lifetime.end.p0(i64 72, ptr %13) #4
  call void @llvm.lifetime.end.p0(i64 4, ptr %12) #4
  call void @llvm.lifetime.end.p0(i64 4, ptr %11) #4
  call void @llvm.lifetime.end.p0(i64 8, ptr %10) #4
  call void @llvm.lifetime.end.p0(i64 8, ptr %9) #4
  call void @llvm.lifetime.end.p0(i64 4, ptr %8) #4
  call void @llvm.lifetime.end.p0(i64 4, ptr %7) #4
  %246 = load i32, ptr %18, align 4
  switch i32 %246, label %248 [
    i32 0, label %247
    i32 1, label %247
  ]

247:                                              ; preds = %245, %245
  ret void

248:                                              ; preds = %245
  unreachable
}