; Function Attrs: nofree norecurse nosync nounwind memory(argmem: readwrite) uwtable
define hidden void @BrotliBuildCodeLengthsHuffmanTable(ptr noundef writeonly captures(none) %0, ptr noundef readonly captures(none) %1, ptr noundef readonly captures(none) %2) local_unnamed_addr #0 {
  %4 = alloca [18 x i32], align 16
  %5 = alloca [6 x i32], align 16
  call void @llvm.lifetime.start.p0(i64 72, ptr nonnull %4) #4
  call void @llvm.lifetime.start.p0(i64 24, ptr nonnull %5) #4
  %6 = getelementptr inbounds nuw i8, ptr %2, i64 2
  %7 = load i16, ptr %6, align 2, !tbaa !3
  %8 = zext i16 %7 to i32
  %9 = add nsw i32 %8, -1
  %10 = getelementptr inbounds nuw i8, ptr %5, i64 4
  store i32 %9, ptr %10, align 4, !tbaa !7
  %11 = getelementptr inbounds nuw i8, ptr %2, i64 4
  %12 = load i16, ptr %11, align 2, !tbaa !3
  %13 = zext i16 %12 to i32
  %14 = add nsw i32 %9, %13
  %15 = getelementptr inbounds nuw i8, ptr %5, i64 8
  store i32 %14, ptr %15, align 8, !tbaa !7
  %16 = getelementptr inbounds nuw i8, ptr %2, i64 6
  %17 = load i16, ptr %16, align 2, !tbaa !3
  %18 = zext i16 %17 to i32
  %19 = add nsw i32 %14, %18
  %20 = getelementptr inbounds nuw i8, ptr %5, i64 12
  store i32 %19, ptr %20, align 4, !tbaa !7
  %21 = getelementptr inbounds nuw i8, ptr %2, i64 8
  %22 = load i16, ptr %21, align 2, !tbaa !3
  %23 = zext i16 %22 to i32
  %24 = add nsw i32 %19, %23
  %25 = getelementptr inbounds nuw i8, ptr %5, i64 16
  store i32 %24, ptr %25, align 16, !tbaa !7
  %26 = getelementptr inbounds nuw i8, ptr %2, i64 10
  %27 = load i16, ptr %26, align 2, !tbaa !3
  %28 = zext i16 %27 to i32
  %29 = add nsw i32 %24, %28
  %30 = getelementptr inbounds nuw i8, ptr %5, i64 20
  store i32 %29, ptr %30, align 4, !tbaa !7
  store i32 17, ptr %5, align 16, !tbaa !7
  br label %31

31:                                               ; preds = %31, %3
  %indvars.iv = phi i64 [ %indvars.iv.next, %31 ], [ 18, %3 ]
  %32 = add nsw i64 %indvars.iv, -1
  %33 = getelementptr inbounds i8, ptr %1, i64 %32
  %34 = load i8, ptr %33, align 1, !tbaa !9
  %35 = zext i8 %34 to i64
  %36 = getelementptr inbounds nuw [6 x i32], ptr %5, i64 0, i64 %35
  %37 = load i32, ptr %36, align 4, !tbaa !7
  %38 = add nsw i32 %37, -1
  store i32 %38, ptr %36, align 4, !tbaa !7
  %39 = sext i32 %37 to i64
  %40 = getelementptr inbounds [18 x i32], ptr %4, i64 0, i64 %39
  %41 = trunc nuw nsw i64 %32 to i32
  store i32 %41, ptr %40, align 4, !tbaa !7
  %42 = add nsw i64 %indvars.iv, -2
  %43 = getelementptr inbounds i8, ptr %1, i64 %42
  %44 = load i8, ptr %43, align 1, !tbaa !9
  %45 = zext i8 %44 to i64
  %46 = getelementptr inbounds nuw [6 x i32], ptr %5, i64 0, i64 %45
  %47 = load i32, ptr %46, align 4, !tbaa !7
  %48 = add nsw i32 %47, -1
  store i32 %48, ptr %46, align 4, !tbaa !7
  %49 = sext i32 %47 to i64
  %50 = getelementptr inbounds [18 x i32], ptr %4, i64 0, i64 %49
  %51 = trunc nuw nsw i64 %42 to i32
  store i32 %51, ptr %50, align 4, !tbaa !7
  %52 = add nsw i64 %indvars.iv, -3
  %53 = getelementptr inbounds i8, ptr %1, i64 %52
  %54 = load i8, ptr %53, align 1, !tbaa !9
  %55 = zext i8 %54 to i64
  %56 = getelementptr inbounds nuw [6 x i32], ptr %5, i64 0, i64 %55
  %57 = load i32, ptr %56, align 4, !tbaa !7
  %58 = add nsw i32 %57, -1
  store i32 %58, ptr %56, align 4, !tbaa !7
  %59 = sext i32 %57 to i64
  %60 = getelementptr inbounds [18 x i32], ptr %4, i64 0, i64 %59
  %61 = trunc nuw nsw i64 %52 to i32
  store i32 %61, ptr %60, align 4, !tbaa !7
  %62 = add nsw i64 %indvars.iv, -4
  %63 = getelementptr inbounds i8, ptr %1, i64 %62
  %64 = load i8, ptr %63, align 1, !tbaa !9
  %65 = zext i8 %64 to i64
  %66 = getelementptr inbounds nuw [6 x i32], ptr %5, i64 0, i64 %65
  %67 = load i32, ptr %66, align 4, !tbaa !7
  %68 = add nsw i32 %67, -1
  store i32 %68, ptr %66, align 4, !tbaa !7
  %69 = sext i32 %67 to i64
  %70 = getelementptr inbounds [18 x i32], ptr %4, i64 0, i64 %69
  %71 = trunc nuw nsw i64 %62 to i32
  store i32 %71, ptr %70, align 4, !tbaa !7
  %72 = add nsw i64 %indvars.iv, -5
  %73 = getelementptr inbounds i8, ptr %1, i64 %72
  %74 = load i8, ptr %73, align 1, !tbaa !9
  %75 = zext i8 %74 to i64
  %76 = getelementptr inbounds nuw [6 x i32], ptr %5, i64 0, i64 %75
  %77 = load i32, ptr %76, align 4, !tbaa !7
  %78 = add nsw i32 %77, -1
  store i32 %78, ptr %76, align 4, !tbaa !7
  %79 = sext i32 %77 to i64
  %80 = getelementptr inbounds [18 x i32], ptr %4, i64 0, i64 %79
  %81 = trunc nuw nsw i64 %72 to i32
  store i32 %81, ptr %80, align 4, !tbaa !7
  %indvars.iv.next = add nsw i64 %indvars.iv, -6
  %82 = getelementptr inbounds i8, ptr %1, i64 %indvars.iv.next
  %83 = load i8, ptr %82, align 1, !tbaa !9
  %84 = zext i8 %83 to i64
  %85 = getelementptr inbounds nuw [6 x i32], ptr %5, i64 0, i64 %84
  %86 = load i32, ptr %85, align 4, !tbaa !7
  %87 = add nsw i32 %86, -1
  store i32 %87, ptr %85, align 4, !tbaa !7
  %88 = sext i32 %86 to i64
  %89 = getelementptr inbounds [18 x i32], ptr %4, i64 0, i64 %88
  %90 = trunc nuw nsw i64 %indvars.iv.next to i32
  store i32 %90, ptr %89, align 4, !tbaa !7
  %.not = icmp eq i64 %indvars.iv.next, 0
  br i1 %.not, label %91, label %31, !llvm.loop !10

91:                                               ; preds = %31
  %92 = load i32, ptr %5, align 16, !tbaa !7
  %93 = icmp eq i32 %92, 0
  br i1 %93, label %94, label %.preheader

94:                                               ; preds = %91
  %95 = load i32, ptr %4, align 16, !tbaa !7
  %.sroa.22.0.insert.ext.i = shl i32 %95, 16
  br label %96

96:                                               ; preds = %94, %96
  %.07893 = phi i64 [ 0, %94 ], [ %98, %96 ]
  %97 = getelementptr inbounds nuw %struct.HuffmanCode, ptr %0, i64 %.07893
  store i32 %.sroa.22.0.insert.ext.i, ptr %97, align 2
  %98 = add nuw nsw i64 %.07893, 1
  %exitcond107.not = icmp eq i64 %98, 32
  br i1 %exitcond107.not, label %.loopexit, label %96, !llvm.loop !12

.preheader:                                       ; preds = %91, %._crit_edge
  %indvars.iv103 = phi i64 [ %indvars.iv.next104, %._crit_edge ], [ 1, %91 ]
  %.082 = phi i64 [ %122, %._crit_edge ], [ 128, %91 ]
  %.081 = phi i32 [ %121, %._crit_edge ], [ 2, %91 ]
  %.179 = phi i64 [ %.280.lcssa, %._crit_edge ], [ 0, %91 ]
  %.1 = phi i32 [ %.2.lcssa, %._crit_edge ], [ 0, %91 ]
  %99 = getelementptr inbounds nuw i16, ptr %2, i64 %indvars.iv103
  %100 = load i16, ptr %99, align 2, !tbaa !3
  %.not8488 = icmp eq i16 %100, 0
  br i1 %.not8488, label %._crit_edge, label %.lr.ph

.lr.ph:                                           ; preds = %.preheader
  %101 = zext i16 %100 to i32
  %102 = sub nsw i32 0, %.081
  %103 = sext i32 %102 to i64
  %104 = sext i32 %.081 to i64
  %105 = sext i32 %.1 to i64
  %106 = trunc nuw nsw i64 %indvars.iv103 to i32
  br label %107

107:                                              ; preds = %.lr.ph, %ReplicateValue.exit
  %indvars.iv100 = phi i64 [ %105, %.lr.ph ], [ %indvars.iv.next101, %ReplicateValue.exit ]
  %.07690 = phi i32 [ %101, %.lr.ph ], [ %119, %ReplicateValue.exit ]
  %.28089 = phi i64 [ %.179, %.lr.ph ], [ %118, %ReplicateValue.exit ]
  %108 = getelementptr inbounds [18 x i32], ptr %4, i64 0, i64 %indvars.iv100
  %109 = load i32, ptr %108, align 4, !tbaa !7
  %.sroa.22.0.insert.ext.i85 = shl i32 %109, 16
  %.sroa.0.0.insert.insert.i = or disjoint i32 %.sroa.22.0.insert.ext.i85, %106
  %110 = getelementptr inbounds nuw [256 x i8], ptr @kReverseBits, i64 0, i64 %.28089
  %111 = load i8, ptr %110, align 1, !tbaa !9
  %112 = zext i8 %111 to i64
  %113 = getelementptr inbounds nuw %struct.HuffmanCode, ptr %0, i64 %112
  br label %114

114:                                              ; preds = %114, %107
  %indvars.iv97 = phi i64 [ %indvars.iv.next98, %114 ], [ 32, %107 ]
  %115 = sub nsw i64 %indvars.iv97, %104
  %indvars.iv.next98 = add nsw i64 %indvars.iv97, %103
  %116 = getelementptr inbounds %struct.HuffmanCode, ptr %113, i64 %115
  store i32 %.sroa.0.0.insert.insert.i, ptr %116, align 2
  %117 = icmp sgt i64 %115, 0
  br i1 %117, label %114, label %ReplicateValue.exit, !llvm.loop !13

ReplicateValue.exit:                              ; preds = %114
  %indvars.iv.next101 = add nsw i64 %indvars.iv100, 1
  %118 = add i64 %.28089, %.082
  %119 = add nsw i32 %.07690, -1
  %.not84 = icmp eq i32 %119, 0
  br i1 %.not84, label %._crit_edge.loopexit, label %107, !llvm.loop !14

._crit_edge.loopexit:                             ; preds = %ReplicateValue.exit
  %120 = trunc nsw i64 %indvars.iv.next101 to i32
  br label %._crit_edge

._crit_edge:                                      ; preds = %._crit_edge.loopexit, %.preheader
  %.280.lcssa = phi i64 [ %.179, %.preheader ], [ %118, %._crit_edge.loopexit ]
  %.2.lcssa = phi i32 [ %.1, %.preheader ], [ %120, %._crit_edge.loopexit ]
  %121 = shl i32 %.081, 1
  %122 = lshr i64 %.082, 1
  %indvars.iv.next104 = add nuw nsw i64 %indvars.iv103, 1
  %exitcond.not = icmp eq i64 %indvars.iv.next104, 6
  br i1 %exitcond.not, label %.loopexit, label %.preheader, !llvm.loop !15

.loopexit:                                        ; preds = %._crit_edge, %96
  call void @llvm.lifetime.end.p0(i64 24, ptr nonnull %5) #4
  call void @llvm.lifetime.end.p0(i64 72, ptr nonnull %4) #4
  ret void
}